; Function Attrs: nounwind uwtable
define noundef zeroext i1 @duckdb_je_pa_expand(ptr noundef %0, ptr noundef %1, ptr noundef %2, i64 noundef %3, i64 noundef %4, i32 noundef %5, i1 noundef zeroext %6, ptr noundef %7) local_unnamed_addr #0 {
  %.val = load i64, ptr %2, align 8, !tbaa !58
  %9 = and i64 %.val, 65536
  %.not = icmp eq i64 %9, 0
  br i1 %.not, label %10, label %29

10:                                               ; preds = %8
  %11 = and i64 %.val, 16384
  %12 = icmp eq i64 %11, 0
  %.v.i = select i1 %12, i64 24, i64 62264
  %13 = getelementptr inbounds nuw i8, ptr %1, i64 %.v.i
  %14 = getelementptr inbounds nuw i8, ptr %13, i64 16
  %15 = load ptr, ptr %14, align 8, !tbaa !60
  %16 = tail call zeroext i1 %15(ptr noundef %0, ptr noundef nonnull %13, ptr noundef nonnull %2, i64 noundef %3, i64 noundef %4, i1 noundef zeroext %6, ptr noundef %7) #4
  br i1 %16, label %29, label %17

17:                                               ; preds = %10
  %18 = sub i64 %4, %3
  %19 = lshr i64 %18, 12
  %20 = getelementptr inbounds nuw i8, ptr %1, i64 8
  %21 = atomicrmw add ptr %20, i64 %19 monotonic, align 8
  %22 = load i64, ptr %2, align 8, !tbaa !58
  %23 = and i64 %22, -267386881
  %24 = zext i32 %5 to i64
  %25 = shl nuw nsw i64 %24, 20
  %26 = or i64 %23, %25
  store i64 %26, ptr %2, align 8, !tbaa !58
  %27 = getelementptr inbounds nuw i8, ptr %1, i64 68272
  %28 = load ptr, ptr %27, align 8, !tbaa !53
  tail call void @duckdb_je_emap_remap(ptr noundef %0, ptr noundef %28, ptr noundef nonnull %2, i32 noundef %5, i1 noundef zeroext false) #4
  br label %29

29:                                               ; preds = %17, %10, %8
  %.0 = phi i1 [ true, %8 ], [ true, %10 ], [ false, %17 ]
  ret i1 %.0
}